; Function Attrs: nounwind uwtable
define dso_local void @UnlockBuffers() local_unnamed_addr #0 {
  %1 = alloca %struct.SpinDelayStatus, align 8
  %2 = load ptr, ptr @PinCountWaitBuf, align 8
  %.not = icmp eq ptr %2, null
  br i1 %.not, label %23, label %3

3:                                                ; preds = %0
  call void @llvm.lifetime.start.p0(i64 40, ptr nonnull %1) #16
  store i32 0, ptr %1, align 8
  %4 = getelementptr inbounds nuw i8, ptr %1, i64 4
  store i32 0, ptr %4, align 4
  %5 = getelementptr inbounds nuw i8, ptr %1, i64 8
  store i32 0, ptr %5, align 8
  %6 = getelementptr inbounds nuw i8, ptr %1, i64 16
  store ptr @.str.3, ptr %6, align 8
  %7 = getelementptr inbounds nuw i8, ptr %1, i64 24
  store i32 5707, ptr %7, align 8
  %8 = getelementptr inbounds nuw i8, ptr %1, i64 32
  store ptr @__func__.LockBufHdr, ptr %8, align 8
  %9 = getelementptr inbounds nuw i8, ptr %2, i64 24
  %10 = atomicrmw or ptr %9, i32 4194304 seq_cst, align 4
  %11 = and i32 %10, 4194304
  %.not2.i = icmp eq i32 %11, 0
  br i1 %.not2.i, label %LockBufHdr.exit, label %.lr.ph.i

.lr.ph.i:                                         ; preds = %3, %.lr.ph.i
  call void @perform_spin_delay(ptr noundef nonnull %1) #16
  %12 = atomicrmw or ptr %9, i32 4194304 seq_cst, align 4
  %13 = and i32 %12, 4194304
  %.not.i = icmp eq i32 %13, 0
  br i1 %.not.i, label %LockBufHdr.exit, label %.lr.ph.i

LockBufHdr.exit:                                  ; preds = %.lr.ph.i, %3
  %.lcssa.i = phi i32 [ %10, %3 ], [ %12, %.lr.ph.i ]
  call void @finish_spin_delay(ptr noundef nonnull %1) #16
  call void @llvm.lifetime.end.p0(i64 40, ptr nonnull %1) #16
  %14 = and i32 %.lcssa.i, 536870912
  %.not7 = icmp eq i32 %14, 0
  br i1 %.not7, label %21, label %15

15:                                               ; preds = %LockBufHdr.exit
  %16 = getelementptr inbounds nuw i8, ptr %2, i64 28
  %17 = load i32, ptr %16, align 4
  %18 = load i32, ptr @MyProcNumber, align 4
  %19 = icmp eq i32 %17, %18
  %20 = and i32 %.lcssa.i, -536870913
  %spec.select = select i1 %19, i32 %20, i32 %.lcssa.i
  br label %21

21:                                               ; preds = %15, %LockBufHdr.exit
  %.0 = phi i32 [ %.lcssa.i, %LockBufHdr.exit ], [ %spec.select, %15 ]
  call void asm sideeffect "", "~{memory},~{dirflag},~{fpsr},~{flags}"() #16, !srcloc !4
  %22 = and i32 %.0, -4194305
  store volatile i32 %22, ptr %9, align 4
  store ptr null, ptr @PinCountWaitBuf, align 8
  br label %23

23:                                               ; preds = %21, %0
  ret void
}